target datalayout = "e-m:e-p270:32:32-p271:32:32-p272:64:64-i64:64-i128:128-f80:128-n8:16:32:64-S128"
target triple = "x86_64-pc-linux-gnu"

%"class.std::function" = type { %"class.std::_Function_base", ptr }
%"class.std::_Function_base" = type { %"union.std::_Any_data", ptr }
%"union.std::_Any_data" = type { %"union.std::_Nocopy_types" }
%"union.std::_Nocopy_types" = type { { i64, i64 } }
%"struct.nix::CreateRegularFileSink" = type { %"struct.nix::Sink" }
%"struct.nix::Sink" = type { ptr }
%struct.anon = type { %"struct.nix::CreateRegularFileSink" }

@_ZTVN3nix4SinkE = linkonce_odr unnamed_addr constant { [6 x ptr] } { [6 x ptr] [ptr null, ptr @_ZTIN3nix4SinkE, ptr @_ZN3nix4SinkD2Ev, ptr @_ZN3nix4SinkD0Ev, ptr @__cxa_pure_virtual, ptr @_ZN3nix4Sink4goodEv] }, comdat, align 8

; Function Attrs: mustprogress nounwind uwtable
define linkonce_odr void @_ZN3nix4SinkD2Ev(ptr noundef nonnull align 8 dereferenceable(8) %0) unnamed_addr #2 comdat align 2 {
  %2 = alloca ptr, align 8
  store ptr %0, ptr %2, align 8
  ret void
}

; Function Attrs: mustprogress nounwind uwtable
define linkonce_odr void @_ZN3nix4SinkC2Ev(ptr noundef nonnull align 8 dereferenceable(8) %0) unnamed_addr #2 comdat align 2 {
  %2 = alloca ptr, align 8
  store ptr %0, ptr %2, align 8
  %3 = load ptr, ptr %2, align 8
  store ptr getelementptr inbounds ({ [6 x ptr] }, ptr @_ZTVN3nix4SinkE, i32 0, i32 0, i32 2), ptr %3, align 8
  ret void
}

; Function Attrs: mustprogress nounwind uwtable
define linkonce_odr void @_ZN3nix21CreateRegularFileSinkD2Ev(ptr noundef nonnull align 8 dereferenceable(8) %0) unnamed_addr #2 comdat align 2 {
  %2 = alloca ptr, align 8
  store ptr %0, ptr %2, align 8
  %3 = load ptr, ptr %2, align 8
  call void @_ZN3nix4SinkD2Ev(ptr noundef nonnull align 8 dereferenceable(8) %3) #1
  ret void
}

; Function Attrs: mustprogress nounwind uwtable
define linkonce_odr noundef zeroext i1 @_ZNKSt14_Function_base8_M_emptyEv(ptr noundef nonnull align 8 dereferenceable(24) %0) #2 comdat align 2 {
  %2 = alloca ptr, align 8
  store ptr %0, ptr %2, align 8
  %3 = load ptr, ptr %2, align 8
  %4 = getelementptr inbounds %"class.std::_Function_base", ptr %3, i32 0, i32 1
  %5 = load ptr, ptr %4, align 8
  %6 = icmp ne ptr %5, null
  %7 = xor i1 %6, true
  ret i1 %7
}

; Function Attrs: mustprogress nounwind uwtable
define linkonce_odr void @_ZN3nix21CreateRegularFileSinkC2Ev(ptr noundef nonnull align 8 dereferenceable(8) %0) unnamed_addr #2 comdat align 2 {
  %2 = alloca ptr, align 8
  store ptr %0, ptr %2, align 8
  %3 = load ptr, ptr %2, align 8
  call void @_ZN3nix4SinkC2Ev(ptr noundef nonnull align 8 dereferenceable(8) %3) #1
  store ptr getelementptr inbounds ({ [8 x ptr] }, ptr @_ZTVN3nix21CreateRegularFileSinkE, i32 0, i32 0, i32 2), ptr %3, align 8
  ret void
}

; Function Attrs: mustprogress nounwind uwtable
define internal void @"_ZZN3nix24NullFileSystemObjectSink17createRegularFileERKNSt7__cxx1112basic_stringIcSt11char_traitsIcESaIcEEESt8functionIFvRNS_21CreateRegularFileSinkEEEEN3$_0D2Ev"(ptr noundef nonnull align 8 dereferenceable(8) %0) unnamed_addr #2 align 2 {
  %2 = alloca ptr, align 8
  store ptr %0, ptr %2, align 8
  %3 = load ptr, ptr %2, align 8
  call void @_ZN3nix21CreateRegularFileSinkD2Ev(ptr noundef nonnull align 8 dereferenceable(8) %3) #1
  ret void
}

; Function Attrs: mustprogress uwtable
define linkonce_odr void @_ZNKSt8functionIFvRN3nix21CreateRegularFileSinkEEEclES2_(ptr noundef nonnull align 8 dereferenceable(32) %0, ptr noundef nonnull align 8 dereferenceable(8) %1) #5 comdat align 2 {
  %3 = alloca ptr, align 8
  %4 = alloca ptr, align 8
  store ptr %0, ptr %3, align 8
  store ptr %1, ptr %4, align 8
  %5 = load ptr, ptr %3, align 8
  %6 = call noundef zeroext i1 @_ZNKSt14_Function_base8_M_emptyEv(ptr noundef nonnull align 8 dereferenceable(24) %5)
  br i1 %6, label %7, label %8

7:                                                ; preds = %2
  call void @_ZSt25__throw_bad_function_callv() #18
  unreachable

8:                                                ; preds = %2
  %9 = getelementptr inbounds %"class.std::function", ptr %5, i32 0, i32 1
  %10 = load ptr, ptr %9, align 8
  %11 = getelementptr inbounds %"class.std::_Function_base", ptr %5, i32 0, i32 0
  %12 = load ptr, ptr %4, align 8
  call void %10(ptr noundef nonnull align 8 dereferenceable(16) %11, ptr noundef nonnull align 8 dereferenceable(8) %12)
  ret void
}

; Function Attrs: mustprogress nounwind uwtable
define internal void @"_ZZN3nix24NullFileSystemObjectSink17createRegularFileERKNSt7__cxx1112basic_stringIcSt11char_traitsIcESaIcEEESt8functionIFvRNS_21CreateRegularFileSinkEEEEN3$_0C2Ev"(ptr noundef nonnull align 8 dereferenceable(8) %0) unnamed_addr #2 align 2 {
  %2 = alloca ptr, align 8
  store ptr %0, ptr %2, align 8
  %3 = load ptr, ptr %2, align 8
  call void @_ZN3nix21CreateRegularFileSinkC2Ev(ptr noundef nonnull align 8 dereferenceable(8) %3) #1
  store ptr getelementptr inbounds ({ [8 x ptr] }, ptr @"_ZTVZN3nix24NullFileSystemObjectSink17createRegularFileERKNSt7__cxx1112basic_stringIcSt11char_traitsIcESaIcEEESt8functionIFvRNS_21CreateRegularFileSinkEEEE3$_0", i32 0, i32 0, i32 2), ptr %3, align 8
  ret void
}

; Function Attrs: mustprogress uwtable
define void @_ZN3nix24NullFileSystemObjectSink17createRegularFileERKNSt7__cxx1112basic_stringIcSt11char_traitsIcESaIcEEESt8functionIFvRNS_21CreateRegularFileSinkEEE(ptr noundef nonnull align 8 dereferenceable(8) %0, ptr noundef nonnull align 8 dereferenceable(32) %1, ptr noundef %2) unnamed_addr #5 align 2 personality ptr @__gxx_personality_v0 {
  %4 = alloca ptr, align 8
  %5 = alloca ptr, align 8
  %6 = alloca ptr, align 8
  %7 = alloca %struct.anon, align 8
  %8 = alloca ptr, align 8
  %9 = alloca i32, align 4
  store ptr %0, ptr %4, align 8
  store ptr %1, ptr %5, align 8
  store ptr %2, ptr %6, align 8
  call void @"_ZZN3nix24NullFileSystemObjectSink17createRegularFileERKNSt7__cxx1112basic_stringIcSt11char_traitsIcESaIcEEESt8functionIFvRNS_21CreateRegularFileSinkEEEEN3$_0C2Ev"(ptr noundef nonnull align 8 dereferenceable(8) %7) #1
  invoke void @_ZNKSt8functionIFvRN3nix21CreateRegularFileSinkEEEclES2_(ptr noundef nonnull align 8 dereferenceable(32) %2, ptr noundef nonnull align 8 dereferenceable(8) %7)
          to label %10 unwind label %11

10:                                               ; preds = %3
  call void @"_ZZN3nix24NullFileSystemObjectSink17createRegularFileERKNSt7__cxx1112basic_stringIcSt11char_traitsIcESaIcEEESt8functionIFvRNS_21CreateRegularFileSinkEEEEN3$_0D2Ev"(ptr noundef nonnull align 8 dereferenceable(8) %7) #1
  ret void

11:                                               ; preds = %3
  %12 = landingpad { ptr, i32 }
          cleanup
  %13 = extractvalue { ptr, i32 } %12, 0
  store ptr %13, ptr %8, align 8
  %14 = extractvalue { ptr, i32 } %12, 1
  store i32 %14, ptr %9, align 4
  call void @"_ZZN3nix24NullFileSystemObjectSink17createRegularFileERKNSt7__cxx1112basic_stringIcSt11char_traitsIcESaIcEEESt8functionIFvRNS_21CreateRegularFileSinkEEEEN3$_0D2Ev"(ptr noundef nonnull align 8 dereferenceable(8) %7) #1
  br label %15

15:                                               ; preds = %11
  %16 = load ptr, ptr %8, align 8
  %17 = load i32, ptr %9, align 4
  %18 = insertvalue { ptr, i32 } poison, ptr %16, 0
  %19 = insertvalue { ptr, i32 } %18, i32 %17, 1
  resume { ptr, i32 } %19
}