; Function Attrs: mustprogress uwtable
define void @_ZN3nix24NullFileSystemObjectSink17createRegularFileERKNSt7__cxx1112basic_stringIcSt11char_traitsIcESaIcEEESt8functionIFvRNS_21CreateRegularFileSinkEEE(ptr nocapture nonnull readnone align 8 %0, ptr nocapture nonnull readnone align 8 %1, ptr noundef %2) unnamed_addr #4 align 2 personality ptr @__gxx_personality_v0 {
  %4 = alloca %struct.anon, align 8
  store ptr getelementptr inbounds ({ [8 x ptr] }, ptr @"_ZTVZN3nix24NullFileSystemObjectSink17createRegularFileERKNSt7__cxx1112basic_stringIcSt11char_traitsIcESaIcEEESt8functionIFvRNS_21CreateRegularFileSinkEEEE3$_0", i64 0, i32 0, i64 2), ptr %4, align 8
  %5 = getelementptr inbounds i8, ptr %2, i64 16
  %6 = load ptr, ptr %5, align 8
  %.not.i.i = icmp eq ptr %6, null
  br i1 %.not.i.i, label %.noexc, label %_ZNKSt8functionIFvRN3nix21CreateRegularFileSinkEEEclES2_.exit

.noexc:                                           ; preds = %3
  tail call void @_ZSt25__throw_bad_function_callv() #30
  unreachable

_ZNKSt8functionIFvRN3nix21CreateRegularFileSinkEEEclES2_.exit: ; preds = %3
  %7 = getelementptr inbounds i8, ptr %2, i64 24
  %8 = load ptr, ptr %7, align 8
  call void %8(ptr noundef nonnull align 8 dereferenceable(16) %2, ptr noundef nonnull align 8 dereferenceable(8) %4)
  ret void
}